; ModuleID = '46/1349.c'
source_filename = "46/1349.c"
target datalayout = "e-m:e-p270:32:32-p271:32:32-p272:64:64-i64:64-f80:128-n8:16:32:64-S128"
target triple = "x86_64-pc-linux-gnu"

@.str = private unnamed_addr constant [5 x i8] c"%d%d\00", align 1
@.str.1 = private unnamed_addr constant [3 x i8] c"%d\00", align 1
@.str.2 = private unnamed_addr constant [4 x i8] c"%d\0A\00", align 1

; Function Attrs: noinline nounwind uwtable
define dso_local i32 @main() #0 {
  %1 = alloca i32, align 4
  %2 = alloca i32, align 4
  %3 = alloca i32, align 4
  %4 = alloca [100 x [100 x i32]], align 16
  %5 = alloca i32, align 4
  %6 = alloca i32, align 4
  %7 = alloca i32, align 4
  %8 = alloca i32, align 4
  store i32 0, i32* %1, align 4
  store i32 0, i32* %8, align 4
  %9 = call i32 (i8*, ...) @__isoc99_scanf(i8* getelementptr inbounds ([5 x i8], [5 x i8]* @.str, i64 0, i64 0), i32* %2, i32* %3)
  %10 = load i32, i32* %2, align 4
  %11 = load i32, i32* %3, align 4
  %12 = mul nsw i32 %10, %11
  store i32 %12, i32* %7, align 4
  store i32 0, i32* %5, align 4
  br label %13

13:                                               ; preds = %34, %0
  %14 = load i32, i32* %5, align 4
  %15 = load i32, i32* %2, align 4
  %16 = icmp slt i32 %14, %15
  br i1 %16, label %17, label %37

17:                                               ; preds = %13
  store i32 0, i32* %6, align 4
  br label %18

18:                                               ; preds = %30, %17
  %19 = load i32, i32* %6, align 4
  %20 = load i32, i32* %3, align 4
  %21 = icmp slt i32 %19, %20
  br i1 %21, label %22, label %33

22:                                               ; preds = %18
  %23 = load i32, i32* %5, align 4
  %24 = sext i32 %23 to i64
  %25 = getelementptr inbounds [100 x [100 x i32]], [100 x [100 x i32]]* %4, i64 0, i64 %24
  %26 = load i32, i32* %6, align 4
  %27 = sext i32 %26 to i64
  %28 = getelementptr inbounds [100 x i32], [100 x i32]* %25, i64 0, i64 %27
  %29 = call i32 (i8*, ...) @__isoc99_scanf(i8* getelementptr inbounds ([3 x i8], [3 x i8]* @.str.1, i64 0, i64 0), i32* %28)
  br label %30

30:                                               ; preds = %22
  %31 = load i32, i32* %6, align 4
  %32 = add nsw i32 %31, 1
  store i32 %32, i32* %6, align 4
  br label %18

33:                                               ; preds = %18
  br label %34

34:                                               ; preds = %33
  %35 = load i32, i32* %5, align 4
  %36 = add nsw i32 %35, 1
  store i32 %36, i32* %5, align 4
  br label %13

37:                                               ; preds = %13
  store i32 0, i32* %5, align 4
  br label %38

38:                                               ; preds = %162, %37
  %39 = load i32, i32* %5, align 4
  %40 = load i32, i32* %2, align 4
  %41 = icmp slt i32 %39, %40
  br i1 %41, label %42, label %165

42:                                               ; preds = %38
  %43 = load i32, i32* %5, align 4
  store i32 %43, i32* %6, align 4
  br label %44

44:                                               ; preds = %61, %42
  %45 = load i32, i32* %6, align 4
  %46 = load i32, i32* %3, align 4
  %47 = load i32, i32* %5, align 4
  %48 = sub nsw i32 %46, %47
  %49 = icmp slt i32 %45, %48
  br i1 %49, label %50, label %64

50:                                               ; preds = %44
  %51 = load i32, i32* %5, align 4
  %52 = sext i32 %51 to i64
  %53 = getelementptr inbounds [100 x [100 x i32]], [100 x [100 x i32]]* %4, i64 0, i64 %52
  %54 = load i32, i32* %6, align 4
  %55 = sext i32 %54 to i64
  %56 = getelementptr inbounds [100 x i32], [100 x i32]* %53, i64 0, i64 %55
  %57 = load i32, i32* %56, align 4
  %58 = call i32 (i8*, ...) @printf(i8* getelementptr inbounds ([4 x i8], [4 x i8]* @.str.2, i64 0, i64 0), i32 %57)
  %59 = load i32, i32* %8, align 4
  %60 = add nsw i32 %59, 1
  store i32 %60, i32* %8, align 4
  br label %61

61:                                               ; preds = %50
  %62 = load i32, i32* %6, align 4
  %63 = add nsw i32 %62, 1
  store i32 %63, i32* %6, align 4
  br label %44

64:                                               ; preds = %44
  %65 = load i32, i32* %8, align 4
  %66 = load i32, i32* %7, align 4
  %67 = icmp eq i32 %65, %66
  br i1 %67, label %68, label %69

68:                                               ; preds = %64
  br label %165

69:                                               ; preds = %64
  %70 = load i32, i32* %5, align 4
  %71 = add nsw i32 %70, 1
  store i32 %71, i32* %5, align 4
  %72 = load i32, i32* %6, align 4
  %73 = add nsw i32 %72, -1
  store i32 %73, i32* %6, align 4
  br label %74

74:                                               ; preds = %94, %69
  %75 = load i32, i32* %5, align 4
  %76 = load i32, i32* %2, align 4
  %77 = load i32, i32* %3, align 4
  %78 = load i32, i32* %6, align 4
  %79 = sub nsw i32 %77, %78
  %80 = sub nsw i32 %79, 1
  %81 = sub nsw i32 %76, %80
  %82 = icmp slt i32 %75, %81
  br i1 %82, label %83, label %97

83:                                               ; preds = %74
  %84 = load i32, i32* %5, align 4
  %85 = sext i32 %84 to i64
  %86 = getelementptr inbounds [100 x [100 x i32]], [100 x [100 x i32]]* %4, i64 0, i64 %85
  %87 = load i32, i32* %6, align 4
  %88 = sext i32 %87 to i64
  %89 = getelementptr inbounds [100 x i32], [100 x i32]* %86, i64 0, i64 %88
  %90 = load i32, i32* %89, align 4
  %91 = call i32 (i8*, ...) @printf(i8* getelementptr inbounds ([4 x i8], [4 x i8]* @.str.2, i64 0, i64 0), i32 %90)
  %92 = load i32, i32* %8, align 4
  %93 = add nsw i32 %92, 1
  store i32 %93, i32* %8, align 4
  br label %94

94:                                               ; preds = %83
  %95 = load i32, i32* %5, align 4
  %96 = add nsw i32 %95, 1
  store i32 %96, i32* %5, align 4
  br label %74

97:                                               ; preds = %74
  %98 = load i32, i32* %8, align 4
  %99 = load i32, i32* %7, align 4
  %100 = icmp eq i32 %98, %99
  br i1 %100, label %101, label %102

101:                                              ; preds = %97
  br label %165

102:                                              ; preds = %97
  %103 = load i32, i32* %6, align 4
  %104 = add nsw i32 %103, -1
  store i32 %104, i32* %6, align 4
  %105 = load i32, i32* %5, align 4
  %106 = add nsw i32 %105, -1
  store i32 %106, i32* %5, align 4
  br label %107

107:                                              ; preds = %125, %102
  %108 = load i32, i32* %6, align 4
  %109 = load i32, i32* %2, align 4
  %110 = load i32, i32* %5, align 4
  %111 = sub nsw i32 %109, %110
  %112 = sub nsw i32 %111, 1
  %113 = icmp sge i32 %108, %112
  br i1 %113, label %114, label %128

114:                                              ; preds = %107
  %115 = load i32, i32* %5, align 4
  %116 = sext i32 %115 to i64
  %117 = getelementptr inbounds [100 x [100 x i32]], [100 x [100 x i32]]* %4, i64 0, i64 %116
  %118 = load i32, i32* %6, align 4
  %119 = sext i32 %118 to i64
  %120 = getelementptr inbounds [100 x i32], [100 x i32]* %117, i64 0, i64 %119
  %121 = load i32, i32* %120, align 4
  %122 = call i32 (i8*, ...) @printf(i8* getelementptr inbounds ([4 x i8], [4 x i8]* @.str.2, i64 0, i64 0), i32 %121)
  %123 = load i32, i32* %8, align 4
  %124 = add nsw i32 %123, 1
  store i32 %124, i32* %8, align 4
  br label %125

125:                                              ; preds = %114
  %126 = load i32, i32* %6, align 4
  %127 = add nsw i32 %126, -1
  store i32 %127, i32* %6, align 4
  br label %107

128:                                              ; preds = %107
  %129 = load i32, i32* %8, align 4
  %130 = load i32, i32* %7, align 4
  %131 = icmp eq i32 %129, %130
  br i1 %131, label %132, label %133

132:                                              ; preds = %128
  br label %165

133:                                              ; preds = %128
  %134 = load i32, i32* %5, align 4
  %135 = add nsw i32 %134, -1
  store i32 %135, i32* %5, align 4
  %136 = load i32, i32* %6, align 4
  %137 = add nsw i32 %136, 1
  store i32 %137, i32* %6, align 4
  br label %138

138:                                              ; preds = %153, %133
  %139 = load i32, i32* %5, align 4
  %140 = load i32, i32* %6, align 4
  %141 = icmp sgt i32 %139, %140
  br i1 %141, label %142, label %156

142:                                              ; preds = %138
  %143 = load i32, i32* %5, align 4
  %144 = sext i32 %143 to i64
  %145 = getelementptr inbounds [100 x [100 x i32]], [100 x [100 x i32]]* %4, i64 0, i64 %144
  %146 = load i32, i32* %6, align 4
  %147 = sext i32 %146 to i64
  %148 = getelementptr inbounds [100 x i32], [100 x i32]* %145, i64 0, i64 %147
  %149 = load i32, i32* %148, align 4
  %150 = call i32 (i8*, ...) @printf(i8* getelementptr inbounds ([4 x i8], [4 x i8]* @.str.2, i64 0, i64 0), i32 %149)
  %151 = load i32, i32* %8, align 4
  %152 = add nsw i32 %151, 1
  store i32 %152, i32* %8, align 4
  br label %153

153:                                              ; preds = %142
  %154 = load i32, i32* %5, align 4
  %155 = add nsw i32 %154, -1
  store i32 %155, i32* %5, align 4
  br label %138

156:                                              ; preds = %138
  %157 = load i32, i32* %8, align 4
  %158 = load i32, i32* %7, align 4
  %159 = icmp eq i32 %157, %158
  br i1 %159, label %160, label %161

160:                                              ; preds = %156
  br label %165

161:                                              ; preds = %156
  br label %162

162:                                              ; preds = %161
  %163 = load i32, i32* %5, align 4
  %164 = add nsw i32 %163, 1
  store i32 %164, i32* %5, align 4
  br label %38

165:                                              ; preds = %160, %132, %101, %68, %38
  %166 = load i32, i32* %1, align 4
  ret i32 %166
}

declare dso_local i32 @__isoc99_scanf(i8*, ...) #1

declare dso_local i32 @printf(i8*, ...) #1


!llvm.module.flags = !{!0}
!llvm.ident = !{!1}

!0 = !{i32 1, !"wchar_size", i32 4}
!1 = !{!"clang version 10.0.0-4ubuntu1 "}
